; ModuleID = 'source-C-CXX/60/645.c'
source_filename = "source-C-CXX/60/645.c"
target datalayout = "e-m:e-p270:32:32-p271:32:32-p272:64:64-i64:64-f80:128-n8:16:32:64-S128"
target triple = "x86_64-pc-linux-gnu"

@.str = private unnamed_addr constant [3 x i8] c"%d\00", align 1
@.str.1 = private unnamed_addr constant [4 x i8] c"%d\0A\00", align 1

; Function Attrs: nofree nounwind sspstrong uwtable
define dso_local i32 @main() local_unnamed_addr #0 {
  %1 = alloca i32, align 4
  %2 = alloca i32, align 4
  %3 = alloca [1000 x i32], align 16
  %4 = bitcast i32* %1 to i8*
  call void @llvm.lifetime.start.p0i8(i64 4, i8* nonnull %4) #3
  %5 = bitcast i32* %2 to i8*
  call void @llvm.lifetime.start.p0i8(i64 4, i8* nonnull %5) #3
  %6 = bitcast [1000 x i32]* %3 to i8*
  call void @llvm.lifetime.start.p0i8(i64 4000, i8* nonnull %6) #3
  %7 = call i32 (i8*, ...) @__isoc99_scanf(i8* getelementptr inbounds ([3 x i8], [3 x i8]* @.str, i64 0, i64 0), i32* nonnull %1)
  %8 = load i32, i32* %1, align 4, !tbaa !5
  %9 = icmp sgt i32 %8, 0
  br i1 %9, label %12, label %67

10:                                               ; preds = %52
  %11 = icmp sgt i32 %55, 0
  br i1 %11, label %58, label %67

12:                                               ; preds = %0, %52
  %13 = phi i64 [ %54, %52 ], [ 0, %0 ]
  %14 = call i32 (i8*, ...) @__isoc99_scanf(i8* getelementptr inbounds ([3 x i8], [3 x i8]* @.str, i64 0, i64 0), i32* nonnull %2)
  %15 = load i32, i32* %2, align 4, !tbaa !5
  %16 = icmp sgt i32 %15, 2
  %17 = getelementptr inbounds [1000 x i32], [1000 x i32]* %3, i64 0, i64 %13
  br i1 %16, label %18, label %52

18:                                               ; preds = %12
  %19 = add nsw i32 %15, -2
  %20 = zext i32 %19 to i64
  %21 = add nsw i64 %20, -1
  %22 = and i64 %20, 7
  %23 = icmp ult i64 %21, 7
  br i1 %23, label %40, label %24

24:                                               ; preds = %18
  %25 = and i64 %20, 4294967288
  br label %26

26:                                               ; preds = %26, %24
  %27 = phi i32 [ 1, %24 ], [ %37, %26 ]
  %28 = phi i32 [ 1, %24 ], [ %36, %26 ]
  %29 = phi i64 [ %25, %24 ], [ %38, %26 ]
  %30 = add nsw i32 %27, %28
  %31 = add nsw i32 %30, %27
  %32 = add nsw i32 %31, %30
  %33 = add nsw i32 %32, %31
  %34 = add nsw i32 %33, %32
  %35 = add nsw i32 %34, %33
  %36 = add nsw i32 %35, %34
  %37 = add nsw i32 %36, %35
  %38 = add i64 %29, -8
  %39 = icmp eq i64 %38, 0
  br i1 %39, label %40, label %26, !llvm.loop !9

40:                                               ; preds = %26, %18
  %41 = phi i32 [ undef, %18 ], [ %37, %26 ]
  %42 = phi i32 [ 1, %18 ], [ %37, %26 ]
  %43 = phi i32 [ 1, %18 ], [ %36, %26 ]
  %44 = icmp eq i64 %22, 0
  br i1 %44, label %52, label %45

45:                                               ; preds = %40, %45
  %46 = phi i32 [ %49, %45 ], [ %42, %40 ]
  %47 = phi i32 [ %46, %45 ], [ %43, %40 ]
  %48 = phi i64 [ %50, %45 ], [ %22, %40 ]
  %49 = add nsw i32 %46, %47
  %50 = add i64 %48, -1
  %51 = icmp eq i64 %50, 0
  br i1 %51, label %52, label %45, !llvm.loop !11

52:                                               ; preds = %40, %45, %12
  %53 = phi i32 [ 1, %12 ], [ %41, %40 ], [ %49, %45 ]
  store i32 %53, i32* %17, align 4, !tbaa !5
  %54 = add nuw nsw i64 %13, 1
  %55 = load i32, i32* %1, align 4, !tbaa !5
  %56 = sext i32 %55 to i64
  %57 = icmp slt i64 %54, %56
  br i1 %57, label %12, label %10, !llvm.loop !13

58:                                               ; preds = %10, %58
  %59 = phi i64 [ %63, %58 ], [ 0, %10 ]
  %60 = getelementptr inbounds [1000 x i32], [1000 x i32]* %3, i64 0, i64 %59
  %61 = load i32, i32* %60, align 4, !tbaa !5
  %62 = call i32 (i8*, ...) @printf(i8* nonnull dereferenceable(1) getelementptr inbounds ([4 x i8], [4 x i8]* @.str.1, i64 0, i64 0), i32 %61)
  %63 = add nuw nsw i64 %59, 1
  %64 = load i32, i32* %1, align 4, !tbaa !5
  %65 = sext i32 %64 to i64
  %66 = icmp slt i64 %63, %65
  br i1 %66, label %58, label %67, !llvm.loop !14

67:                                               ; preds = %58, %0, %10
  call void @llvm.lifetime.end.p0i8(i64 4000, i8* nonnull %6) #3
  call void @llvm.lifetime.end.p0i8(i64 4, i8* nonnull %5) #3
  call void @llvm.lifetime.end.p0i8(i64 4, i8* nonnull %4) #3
  ret i32 0
}

; Function Attrs: argmemonly mustprogress nofree nosync nounwind willreturn
declare void @llvm.lifetime.start.p0i8(i64 immarg, i8* nocapture) #1

; Function Attrs: nofree nounwind
declare noundef i32 @__isoc99_scanf(i8* nocapture noundef readonly, ...) local_unnamed_addr #2

; Function Attrs: nofree nounwind
declare noundef i32 @printf(i8* nocapture noundef readonly, ...) local_unnamed_addr #2

; Function Attrs: argmemonly mustprogress nofree nosync nounwind willreturn
declare void @llvm.lifetime.end.p0i8(i64 immarg, i8* nocapture) #1


!llvm.module.flags = !{!0, !1, !2, !3}
!llvm.ident = !{!4}

!0 = !{i32 1, !"wchar_size", i32 4}
!1 = !{i32 7, !"PIC Level", i32 2}
!2 = !{i32 7, !"PIE Level", i32 2}
!3 = !{i32 7, !"uwtable", i32 1}
!4 = !{!"clang version 13.0.0"}
!5 = !{!6, !6, i64 0}
!6 = !{!"int", !7, i64 0}
!7 = !{!"omnipotent char", !8, i64 0}
!8 = !{!"Simple C/C++ TBAA"}
!9 = distinct !{!9, !10}
!10 = !{!"llvm.loop.mustprogress"}
!11 = distinct !{!11, !12}
!12 = !{!"llvm.loop.unroll.disable"}
!13 = distinct !{!13, !10}
!14 = distinct !{!14, !10}
